target datalayout = "e-m:e-p270:32:32-p271:32:32-p272:64:64-i64:64-i128:128-f80:128-n8:16:32:64-S128"
target triple = "x86_64-pc-linux-gnu"

%struct._object = type { %union.anon, ptr }
%union.anon = type { i64 }
%struct.PyVarObject = type { %struct._object, i64 }
%struct.anon.4 = type { i32, i32 }
%struct.PyListObject = type { %struct.PyVarObject, ptr, i64 }
%struct.asdl_seq = type { i64, ptr }

; Function Attrs: alwaysinline nounwind uwtable
define internal i32 @_Py_IsImmortal(ptr noundef %0) #2 {
  %2 = alloca ptr, align 8
  store ptr %0, ptr %2, align 8, !tbaa !13
  %3 = load ptr, ptr %2, align 8, !tbaa !13
  %4 = getelementptr inbounds nuw %struct._object, ptr %3, i32 0, i32 0
  %5 = getelementptr inbounds nuw %struct.anon.4, ptr %4, i32 0, i32 0
  %6 = load i32, ptr %5, align 8, !tbaa !21
  %7 = icmp slt i32 %6, 0
  %8 = zext i1 %7 to i32
  ret i32 %8
}

; Function Attrs: inlinehint nounwind uwtable
define internal void @PyList_SET_ITEM(ptr noundef %0, i64 noundef %1, ptr noundef %2) #6 {
  %4 = alloca ptr, align 8
  %5 = alloca i64, align 8
  %6 = alloca ptr, align 8
  %7 = alloca ptr, align 8
  store ptr %0, ptr %4, align 8, !tbaa !13
  store i64 %1, ptr %5, align 8, !tbaa !22
  store ptr %2, ptr %6, align 8, !tbaa !13
  call void @llvm.lifetime.start.p0(i64 8, ptr %7) #8
  %8 = load ptr, ptr %4, align 8, !tbaa !13
  store ptr %8, ptr %7, align 8, !tbaa !26
  %9 = load ptr, ptr %6, align 8, !tbaa !13
  %10 = load ptr, ptr %7, align 8, !tbaa !26
  %11 = getelementptr inbounds nuw %struct.PyListObject, ptr %10, i32 0, i32 1
  %12 = load ptr, ptr %11, align 8, !tbaa !165
  %13 = load i64, ptr %5, align 8, !tbaa !22
  %14 = getelementptr ptr, ptr %12, i64 %13
  store ptr %9, ptr %14, align 8, !tbaa !13
  call void @llvm.lifetime.end.p0(i64 8, ptr %7) #8
  ret void
}

; Function Attrs: alwaysinline nounwind uwtable
define internal void @Py_DECREF(ptr noundef %0) #2 {
  %2 = alloca ptr, align 8
  store ptr %0, ptr %2, align 8, !tbaa !13
  %3 = load ptr, ptr %2, align 8, !tbaa !13
  %4 = call i32 @_Py_IsImmortal(ptr noundef %3)
  %5 = icmp ne i32 %4, 0
  br i1 %5, label %6, label %7

6:                                                ; preds = %1
  br label %16

7:                                                ; preds = %1
  %8 = load ptr, ptr %2, align 8, !tbaa !13
  %9 = getelementptr inbounds nuw %struct._object, ptr %8, i32 0, i32 0
  %10 = getelementptr inbounds nuw %struct.anon.4, ptr %9, i32 0, i32 0
  %11 = load i32, ptr %10, align 8, !tbaa !21
  %12 = add i32 %11, -1
  store i32 %12, ptr %10, align 8, !tbaa !21
  %13 = icmp eq i32 %12, 0
  br i1 %13, label %14, label %16

14:                                               ; preds = %7
  %15 = load ptr, ptr %2, align 8, !tbaa !13
  call void @_Py_Dealloc(ptr noundef %15)
  br label %16

16:                                               ; preds = %6, %14, %7
  ret void
}

; Function Attrs: nounwind uwtable
define internal ptr @ast2obj_list(ptr noundef %0, ptr noundef %1, ptr noundef %2, ptr noundef %3) #0 {
  %5 = alloca ptr, align 8
  %6 = alloca ptr, align 8
  %7 = alloca ptr, align 8
  %8 = alloca ptr, align 8
  %9 = alloca ptr, align 8
  %10 = alloca i64, align 8
  %11 = alloca i64, align 8
  %12 = alloca ptr, align 8
  %13 = alloca ptr, align 8
  %14 = alloca i32, align 4
  store ptr %0, ptr %6, align 8, !tbaa !9
  store ptr %1, ptr %7, align 8, !tbaa !147
  store ptr %2, ptr %8, align 8, !tbaa !26
  store ptr %3, ptr %9, align 8, !tbaa !26
  call void @llvm.lifetime.start.p0(i64 8, ptr %10) #8
  call void @llvm.lifetime.start.p0(i64 8, ptr %11) #8
  %15 = load ptr, ptr %8, align 8, !tbaa !26
  %16 = icmp eq ptr %15, null
  br i1 %16, label %17, label %18

17:                                               ; preds = %4
  br label %22

18:                                               ; preds = %4
  %19 = load ptr, ptr %8, align 8, !tbaa !26
  %20 = getelementptr inbounds nuw %struct.asdl_seq, ptr %19, i32 0, i32 0
  %21 = load i64, ptr %20, align 8, !tbaa !441
  br label %22

22:                                               ; preds = %18, %17
  %23 = phi i64 [ 0, %17 ], [ %21, %18 ]
  store i64 %23, ptr %11, align 8, !tbaa !22
  call void @llvm.lifetime.start.p0(i64 8, ptr %12) #8
  %24 = load i64, ptr %11, align 8, !tbaa !22
  %25 = call ptr @PyList_New(i64 noundef %24)
  store ptr %25, ptr %12, align 8, !tbaa !13
  call void @llvm.lifetime.start.p0(i64 8, ptr %13) #8
  %26 = load ptr, ptr %12, align 8, !tbaa !13
  %27 = icmp ne ptr %26, null
  br i1 %27, label %29, label %28

28:                                               ; preds = %22
  store ptr null, ptr %5, align 8
  store i32 1, ptr %14, align 4
  br label %58

29:                                               ; preds = %22
  store i64 0, ptr %10, align 8, !tbaa !22
  br label %30

30:                                               ; preds = %53, %29
  %31 = load i64, ptr %10, align 8, !tbaa !22
  %32 = load i64, ptr %11, align 8, !tbaa !22
  %33 = icmp slt i64 %31, %32
  br i1 %33, label %34, label %56

34:                                               ; preds = %30
  %35 = load ptr, ptr %9, align 8, !tbaa !26
  %36 = load ptr, ptr %6, align 8, !tbaa !9
  %37 = load ptr, ptr %7, align 8, !tbaa !147
  %38 = load ptr, ptr %8, align 8, !tbaa !26
  %39 = getelementptr inbounds nuw %struct.asdl_seq, ptr %38, i32 0, i32 1
  %40 = load ptr, ptr %39, align 8, !tbaa !443
  %41 = load i64, ptr %10, align 8, !tbaa !22
  %42 = getelementptr ptr, ptr %40, i64 %41
  %43 = load ptr, ptr %42, align 8, !tbaa !26
  %44 = call ptr %35(ptr noundef %36, ptr noundef %37, ptr noundef %43)
  store ptr %44, ptr %13, align 8, !tbaa !13
  %45 = load ptr, ptr %13, align 8, !tbaa !13
  %46 = icmp ne ptr %45, null
  br i1 %46, label %49, label %47

47:                                               ; preds = %34
  %48 = load ptr, ptr %12, align 8, !tbaa !13
  call void @Py_DECREF(ptr noundef %48)
  store ptr null, ptr %5, align 8
  store i32 1, ptr %14, align 4
  br label %58

49:                                               ; preds = %34
  %50 = load ptr, ptr %12, align 8, !tbaa !13
  %51 = load i64, ptr %10, align 8, !tbaa !22
  %52 = load ptr, ptr %13, align 8, !tbaa !13
  call void @PyList_SET_ITEM(ptr noundef %50, i64 noundef %51, ptr noundef %52)
  br label %53

53:                                               ; preds = %49
  %54 = load i64, ptr %10, align 8, !tbaa !22
  %55 = add i64 %54, 1
  store i64 %55, ptr %10, align 8, !tbaa !22
  br label %30, !llvm.loop !444

56:                                               ; preds = %30
  %57 = load ptr, ptr %12, align 8, !tbaa !13
  store ptr %57, ptr %5, align 8
  store i32 1, ptr %14, align 4
  br label %58

58:                                               ; preds = %56, %47, %28
  call void @llvm.lifetime.end.p0(i64 8, ptr %13) #8
  call void @llvm.lifetime.end.p0(i64 8, ptr %12) #8
  call void @llvm.lifetime.end.p0(i64 8, ptr %11) #8
  call void @llvm.lifetime.end.p0(i64 8, ptr %10) #8
  %59 = load ptr, ptr %5, align 8
  ret ptr %59
}