; Function Attrs: nounwind uwtable
define internal fastcc ptr @ast2obj_list(ptr noundef %0, ptr noundef %1, ptr noundef readonly %2, ptr noundef readonly captures(none) %3) unnamed_addr #0 {
  %5 = icmp eq ptr %2, null
  br i1 %5, label %.thread, label %6

6:                                                ; preds = %4
  %7 = load i64, ptr %2, align 8, !tbaa !113
  %8 = tail call ptr @PyList_New(i64 noundef %7) #8
  %.not = icmp eq ptr %8, null
  br i1 %.not, label %Py_DECREF.exit, label %.preheader

.thread:                                          ; preds = %4
  %9 = tail call ptr @PyList_New(i64 noundef 0) #8
  br label %Py_DECREF.exit

.preheader:                                       ; preds = %6
  %10 = icmp sgt i64 %7, 0
  br i1 %10, label %.lr.ph, label %Py_DECREF.exit

.lr.ph:                                           ; preds = %.preheader
  %11 = getelementptr inbounds nuw i8, ptr %2, i64 8
  %12 = getelementptr i8, ptr %8, i64 24
  br label %13

13:                                               ; preds = %.lr.ph, %24
  %.01823 = phi i64 [ 0, %.lr.ph ], [ %26, %24 ]
  %14 = load ptr, ptr %11, align 8, !tbaa !115
  %15 = getelementptr ptr, ptr %14, i64 %.01823
  %16 = load ptr, ptr %15, align 8, !tbaa !116
  %17 = tail call ptr %3(ptr noundef %0, ptr noundef %1, ptr noundef %16) #8
  %.not22 = icmp eq ptr %17, null
  br i1 %.not22, label %18, label %24

18:                                               ; preds = %13
  %19 = load i32, ptr %8, align 8, !tbaa !9
  %.not.i = icmp sgt i32 %19, -1
  br i1 %.not.i, label %20, label %Py_DECREF.exit

20:                                               ; preds = %18
  %21 = add nsw i32 %19, -1
  store i32 %21, ptr %8, align 8, !tbaa !9
  %22 = icmp eq i32 %21, 0
  br i1 %22, label %23, label %Py_DECREF.exit

23:                                               ; preds = %20
  tail call void @_Py_Dealloc(ptr noundef nonnull %8) #8
  br label %Py_DECREF.exit

24:                                               ; preds = %13
  %.val = load ptr, ptr %12, align 8, !tbaa !117
  %25 = getelementptr ptr, ptr %.val, i64 %.01823
  store ptr %17, ptr %25, align 8, !tbaa !4
  %26 = add nuw nsw i64 %.01823, 1
  %exitcond.not = icmp eq i64 %26, %7
  br i1 %exitcond.not, label %Py_DECREF.exit, label %13, !llvm.loop !122

Py_DECREF.exit:                                   ; preds = %24, %.thread, %.preheader, %23, %20, %18, %6
  %.0 = phi ptr [ null, %6 ], [ null, %18 ], [ null, %20 ], [ null, %23 ], [ %8, %.preheader ], [ %9, %.thread ], [ %8, %24 ]
  ret ptr %.0
}